; Function Attrs: nounwind uwtable
define ptr @l_Lean_Elab_elabTerminationHints___at___private_Lean_Elab_LetRec_0__Lean_Elab_Term_mkLetRecDeclView___spec__4___lambda__11(ptr noundef %0, ptr readnone captures(none) %1, ptr readnone captures(none) %2, ptr readnone captures(none) %3, ptr noundef %4, ptr noundef %5, ptr noundef %6, ptr noundef %7, ptr noundef %8, ptr noundef %9, ptr noundef %10) local_unnamed_addr #0 {
  %12 = load ptr, ptr @l_Lean_Elab_elabTerminationHints___at___private_Lean_Elab_LetRec_0__Lean_Elab_Term_mkLetRecDeclView___spec__4___lambda__11___closed__2, align 8, !tbaa !10
  %13 = tail call ptr @l_Lean_throwErrorAt___at___private_Lean_Elab_LetRec_0__Lean_Elab_Term_mkLetRecDeclView___spec__9(ptr noundef %0, ptr noundef %12, ptr noundef %4, ptr noundef %5, ptr noundef %6, ptr noundef %7, ptr noundef %8, ptr noundef %9, ptr noundef %10)
  %.val = load i32, ptr %13, align 4, !tbaa !4
  %14 = icmp eq i32 %.val, 1
  br i1 %14, label %51, label %15

15:                                               ; preds = %11
  %16 = getelementptr inbounds nuw i8, ptr %13, i64 8
  %17 = load ptr, ptr %16, align 8, !tbaa !10
  %18 = getelementptr inbounds nuw i8, ptr %13, i64 16
  %19 = load ptr, ptr %18, align 8, !tbaa !10
  %20 = ptrtoint ptr %19 to i64
  %21 = and i64 %20, 1
  %.not = icmp eq i64 %21, 0
  br i1 %.not, label %22, label %lean_inc.exit22

22:                                               ; preds = %15
  %.val.i = load i32, ptr %19, align 4, !tbaa !4
  %23 = icmp sgt i32 %.val.i, 0
  br i1 %23, label %24, label %26, !prof !9

24:                                               ; preds = %22
  %25 = add nuw i32 %.val.i, 1
  store i32 %25, ptr %19, align 4, !tbaa !4
  br label %lean_inc.exit22

26:                                               ; preds = %22
  %.not.i23 = icmp eq i32 %.val.i, 0
  br i1 %.not.i23, label %lean_inc.exit22, label %27

27:                                               ; preds = %26
  tail call void @lean_inc_ref_cold(ptr noundef nonnull %19) #5
  br label %lean_inc.exit22

lean_inc.exit22:                                  ; preds = %27, %26, %24, %15
  %28 = ptrtoint ptr %17 to i64
  %29 = and i64 %28, 1
  %.not27 = icmp eq i64 %29, 0
  br i1 %.not27, label %30, label %lean_inc.exit

30:                                               ; preds = %lean_inc.exit22
  %.val.i24 = load i32, ptr %17, align 4, !tbaa !4
  %31 = icmp sgt i32 %.val.i24, 0
  br i1 %31, label %32, label %34, !prof !9

32:                                               ; preds = %30
  %33 = add nuw i32 %.val.i24, 1
  store i32 %33, ptr %17, align 4, !tbaa !4
  br label %lean_inc.exit

34:                                               ; preds = %30
  %.not.i25 = icmp eq i32 %.val.i24, 0
  br i1 %.not.i25, label %lean_inc.exit, label %35

35:                                               ; preds = %34
  tail call void @lean_inc_ref_cold(ptr noundef nonnull %17) #5
  br label %lean_inc.exit

lean_inc.exit:                                    ; preds = %35, %34, %32, %lean_inc.exit22
  %36 = ptrtoint ptr %13 to i64
  %37 = and i64 %36, 1
  %.not28 = icmp eq i64 %37, 0
  br i1 %.not28, label %38, label %lean_dec.exit

38:                                               ; preds = %lean_inc.exit
  %39 = load i32, ptr %13, align 4, !tbaa !4
  %40 = icmp sgt i32 %39, 1
  br i1 %40, label %41, label %43, !prof !9

41:                                               ; preds = %38
  %42 = add nsw i32 %39, -1
  store i32 %42, ptr %13, align 4, !tbaa !4
  br label %lean_dec.exit

43:                                               ; preds = %38
  %.not.i = icmp eq i32 %39, 0
  br i1 %.not.i, label %lean_dec.exit, label %44

44:                                               ; preds = %43
  tail call void @lean_dec_ref_cold(ptr noundef nonnull %13) #5
  br label %lean_dec.exit

lean_dec.exit:                                    ; preds = %44, %43, %41, %lean_inc.exit
  tail call void @lean_inc_heartbeat() #5
  %45 = tail call noalias ptr @mi_malloc_small(i64 noundef 24) #5
  %46 = icmp eq ptr %45, null
  br i1 %46, label %47, label %lean_alloc_ctor.exit

47:                                               ; preds = %lean_dec.exit
  tail call void @lean_internal_panic_out_of_memory() #6
  unreachable

lean_alloc_ctor.exit:                             ; preds = %lean_dec.exit
  %48 = getelementptr inbounds nuw i8, ptr %45, i64 4
  store i32 1, ptr %45, align 4, !tbaa !4
  store i32 16908312, ptr %48, align 4
  %49 = getelementptr inbounds nuw i8, ptr %45, i64 8
  store ptr %17, ptr %49, align 8, !tbaa !10
  %50 = getelementptr inbounds nuw i8, ptr %45, i64 16
  store ptr %19, ptr %50, align 8, !tbaa !10
  br label %51

51:                                               ; preds = %11, %lean_alloc_ctor.exit
  %.0 = phi ptr [ %45, %lean_alloc_ctor.exit ], [ %13, %11 ]
  ret ptr %.0
}